; ModuleID = '1/671.c'
source_filename = "1/671.c"
target datalayout = "e-m:e-p270:32:32-p271:32:32-p272:64:64-i64:64-f80:128-n8:16:32:64-S128"
target triple = "x86_64-pc-linux-gnu"

@.str = private unnamed_addr constant [3 x i8] c"%d\00", align 1
@.str.1 = private unnamed_addr constant [4 x i8] c"%d\0A\00", align 1

; Function Attrs: noinline nounwind uwtable
define dso_local i32 @f(i32 %0, i32 %1) #0 {
  %3 = alloca i32, align 4
  %4 = alloca i32, align 4
  %5 = alloca i32, align 4
  %6 = alloca i32, align 4
  %7 = alloca i32, align 4
  store i32 %0, i32* %4, align 4
  store i32 %1, i32* %5, align 4
  store i32 1, i32* %7, align 4
  %8 = load i32, i32* %4, align 4
  %9 = load i32, i32* %5, align 4
  %10 = icmp slt i32 %8, %9
  br i1 %10, label %11, label %12

11:                                               ; preds = %2
  store i32 0, i32* %3, align 4
  br label %75

12:                                               ; preds = %2
  %13 = load i32, i32* %4, align 4
  %14 = load i32, i32* %5, align 4
  %15 = icmp eq i32 %13, %14
  br i1 %15, label %16, label %17

16:                                               ; preds = %12
  store i32 1, i32* %3, align 4
  br label %75

17:                                               ; preds = %12
  %18 = load i32, i32* %4, align 4
  %19 = load i32, i32* %5, align 4
  %20 = icmp sgt i32 %18, %19
  br i1 %20, label %21, label %75

21:                                               ; preds = %17
  %22 = load i32, i32* %5, align 4
  %23 = icmp eq i32 %22, 1
  br i1 %23, label %24, label %49

24:                                               ; preds = %21
  %25 = load i32, i32* %5, align 4
  %26 = add nsw i32 %25, 1
  store i32 %26, i32* %6, align 4
  br label %27

27:                                               ; preds = %45, %24
  %28 = load i32, i32* %6, align 4
  %29 = load i32, i32* %4, align 4
  %30 = icmp sle i32 %28, %29
  br i1 %30, label %31, label %48

31:                                               ; preds = %27
  %32 = load i32, i32* %4, align 4
  %33 = load i32, i32* %6, align 4
  %34 = srem i32 %32, %33
  %35 = icmp eq i32 %34, 0
  br i1 %35, label %36, label %44

36:                                               ; preds = %31
  %37 = load i32, i32* %7, align 4
  %38 = load i32, i32* %4, align 4
  %39 = load i32, i32* %6, align 4
  %40 = sdiv i32 %38, %39
  %41 = load i32, i32* %6, align 4
  %42 = call i32 @f(i32 %40, i32 %41)
  %43 = add nsw i32 %37, %42
  store i32 %43, i32* %7, align 4
  br label %44

44:                                               ; preds = %36, %31
  br label %45

45:                                               ; preds = %44
  %46 = load i32, i32* %6, align 4
  %47 = add nsw i32 %46, 1
  store i32 %47, i32* %6, align 4
  br label %27

48:                                               ; preds = %27
  br label %73

49:                                               ; preds = %21
  %50 = load i32, i32* %5, align 4
  store i32 %50, i32* %6, align 4
  br label %51

51:                                               ; preds = %69, %49
  %52 = load i32, i32* %6, align 4
  %53 = load i32, i32* %4, align 4
  %54 = icmp sle i32 %52, %53
  br i1 %54, label %55, label %72

55:                                               ; preds = %51
  %56 = load i32, i32* %4, align 4
  %57 = load i32, i32* %6, align 4
  %58 = srem i32 %56, %57
  %59 = icmp eq i32 %58, 0
  br i1 %59, label %60, label %68

60:                                               ; preds = %55
  %61 = load i32, i32* %7, align 4
  %62 = load i32, i32* %4, align 4
  %63 = load i32, i32* %6, align 4
  %64 = sdiv i32 %62, %63
  %65 = load i32, i32* %6, align 4
  %66 = call i32 @f(i32 %64, i32 %65)
  %67 = add nsw i32 %61, %66
  store i32 %67, i32* %7, align 4
  br label %68

68:                                               ; preds = %60, %55
  br label %69

69:                                               ; preds = %68
  %70 = load i32, i32* %6, align 4
  %71 = add nsw i32 %70, 1
  store i32 %71, i32* %6, align 4
  br label %51

72:                                               ; preds = %51
  br label %73

73:                                               ; preds = %72, %48
  %74 = load i32, i32* %7, align 4
  store i32 %74, i32* %3, align 4
  br label %75

75:                                               ; preds = %11, %16, %73, %17
  %76 = load i32, i32* %3, align 4
  ret i32 %76
}

; Function Attrs: noinline nounwind uwtable
define dso_local i32 @main() #0 {
  %1 = alloca i32, align 4
  %2 = alloca i32, align 4
  %3 = alloca i32, align 4
  %4 = alloca i32, align 4
  %5 = alloca i32, align 4
  %6 = alloca i32, align 4
  store i32 0, i32* %1, align 4
  store i32 0, i32* %4, align 4
  %7 = call i32 (i8*, ...) @__isoc99_scanf(i8* getelementptr inbounds ([3 x i8], [3 x i8]* @.str, i64 0, i64 0), i32* %5)
  store i32 1, i32* %6, align 4
  br label %8

8:                                                ; preds = %18, %0
  %9 = load i32, i32* %6, align 4
  %10 = load i32, i32* %5, align 4
  %11 = icmp sle i32 %9, %10
  br i1 %11, label %12, label %21

12:                                               ; preds = %8
  %13 = call i32 (i8*, ...) @__isoc99_scanf(i8* getelementptr inbounds ([3 x i8], [3 x i8]* @.str, i64 0, i64 0), i32* %2)
  %14 = load i32, i32* %2, align 4
  %15 = call i32 @f(i32 %14, i32 1)
  store i32 %15, i32* %4, align 4
  %16 = load i32, i32* %4, align 4
  %17 = call i32 (i8*, ...) @printf(i8* getelementptr inbounds ([4 x i8], [4 x i8]* @.str.1, i64 0, i64 0), i32 %16)
  br label %18

18:                                               ; preds = %12
  %19 = load i32, i32* %6, align 4
  %20 = add nsw i32 %19, 1
  store i32 %20, i32* %6, align 4
  br label %8

21:                                               ; preds = %8
  ret i32 0
}

declare dso_local i32 @__isoc99_scanf(i8*, ...) #1

declare dso_local i32 @printf(i8*, ...) #1


!llvm.module.flags = !{!0}
!llvm.ident = !{!1}

!0 = !{i32 1, !"wchar_size", i32 4}
!1 = !{!"clang version 10.0.0-4ubuntu1 "}
