; ModuleID = 'source-C-CXX/0/671.c'
source_filename = "source-C-CXX/0/671.c"
target datalayout = "e-m:e-p270:32:32-p271:32:32-p272:64:64-i64:64-f80:128-n8:16:32:64-S128"
target triple = "x86_64-pc-linux-gnu"

@.str = private unnamed_addr constant [3 x i8] c"%d\00", align 1
@.str.1 = private unnamed_addr constant [4 x i8] c"%d\0A\00", align 1

; Function Attrs: nofree nosync nounwind readnone sspstrong uwtable
define dso_local i32 @f(i32 %0, i32 %1) local_unnamed_addr #0 {
  %3 = icmp slt i32 %0, %1
  br i1 %3, label %38, label %4

4:                                                ; preds = %2
  %5 = icmp eq i32 %0, %1
  br i1 %5, label %38, label %6

6:                                                ; preds = %4
  %7 = icmp sgt i32 %0, %1
  br i1 %7, label %8, label %38

8:                                                ; preds = %6
  %9 = icmp eq i32 %1, 1
  br i1 %9, label %10, label %25

10:                                               ; preds = %8
  %11 = icmp slt i32 %0, 2
  br i1 %11, label %38, label %12

12:                                               ; preds = %10, %21
  %13 = phi i32 [ %22, %21 ], [ 1, %10 ]
  %14 = phi i32 [ %23, %21 ], [ 2, %10 ]
  %15 = srem i32 %0, %14
  %16 = sdiv i32 %0, %14
  %17 = icmp eq i32 %15, 0
  br i1 %17, label %18, label %21

18:                                               ; preds = %12
  %19 = tail call i32 @f(i32 %16, i32 %14)
  %20 = add nsw i32 %19, %13
  br label %21

21:                                               ; preds = %12, %18
  %22 = phi i32 [ %20, %18 ], [ %13, %12 ]
  %23 = add nuw i32 %14, 1
  %24 = icmp eq i32 %14, %0
  br i1 %24, label %38, label %12, !llvm.loop !5

25:                                               ; preds = %8, %34
  %26 = phi i32 [ %35, %34 ], [ 1, %8 ]
  %27 = phi i32 [ %36, %34 ], [ %1, %8 ]
  %28 = srem i32 %0, %27
  %29 = sdiv i32 %0, %27
  %30 = icmp eq i32 %28, 0
  br i1 %30, label %31, label %34

31:                                               ; preds = %25
  %32 = tail call i32 @f(i32 %29, i32 %27)
  %33 = add nsw i32 %32, %26
  br label %34

34:                                               ; preds = %25, %31
  %35 = phi i32 [ %33, %31 ], [ %26, %25 ]
  %36 = add i32 %27, 1
  %37 = icmp eq i32 %27, %0
  br i1 %37, label %38, label %25, !llvm.loop !7

38:                                               ; preds = %34, %21, %10, %6, %4, %2
  %39 = phi i32 [ 0, %2 ], [ 1, %4 ], [ undef, %6 ], [ 1, %10 ], [ %22, %21 ], [ %35, %34 ]
  ret i32 %39
}

; Function Attrs: argmemonly mustprogress nofree nosync nounwind willreturn
declare void @llvm.lifetime.start.p0i8(i64 immarg, i8* nocapture) #1

; Function Attrs: argmemonly mustprogress nofree nosync nounwind willreturn
declare void @llvm.lifetime.end.p0i8(i64 immarg, i8* nocapture) #1

; Function Attrs: nofree nounwind sspstrong uwtable
define dso_local i32 @main() local_unnamed_addr #2 {
  %1 = alloca i32, align 4
  %2 = alloca i32, align 4
  %3 = bitcast i32* %1 to i8*
  call void @llvm.lifetime.start.p0i8(i64 4, i8* nonnull %3) #4
  %4 = bitcast i32* %2 to i8*
  call void @llvm.lifetime.start.p0i8(i64 4, i8* nonnull %4) #4
  %5 = call i32 (i8*, ...) @__isoc99_scanf(i8* getelementptr inbounds ([3 x i8], [3 x i8]* @.str, i64 0, i64 0), i32* nonnull %2)
  %6 = load i32, i32* %2, align 4, !tbaa !8
  %7 = icmp slt i32 %6, 1
  br i1 %7, label %17, label %8

8:                                                ; preds = %0, %8
  %9 = phi i32 [ %14, %8 ], [ 1, %0 ]
  %10 = call i32 (i8*, ...) @__isoc99_scanf(i8* getelementptr inbounds ([3 x i8], [3 x i8]* @.str, i64 0, i64 0), i32* nonnull %1)
  %11 = load i32, i32* %1, align 4, !tbaa !8
  %12 = call i32 @f(i32 %11, i32 1)
  %13 = call i32 (i8*, ...) @printf(i8* nonnull dereferenceable(1) getelementptr inbounds ([4 x i8], [4 x i8]* @.str.1, i64 0, i64 0), i32 %12)
  %14 = add nuw nsw i32 %9, 1
  %15 = load i32, i32* %2, align 4, !tbaa !8
  %16 = icmp slt i32 %9, %15
  br i1 %16, label %8, label %17, !llvm.loop !12

17:                                               ; preds = %8, %0
  call void @llvm.lifetime.end.p0i8(i64 4, i8* nonnull %4) #4
  call void @llvm.lifetime.end.p0i8(i64 4, i8* nonnull %3) #4
  ret i32 0
}

; Function Attrs: nofree nounwind
declare noundef i32 @__isoc99_scanf(i8* nocapture noundef readonly, ...) local_unnamed_addr #3

; Function Attrs: nofree nounwind
declare noundef i32 @printf(i8* nocapture noundef readonly, ...) local_unnamed_addr #3


!llvm.module.flags = !{!0, !1, !2, !3}
!llvm.ident = !{!4}

!0 = !{i32 1, !"wchar_size", i32 4}
!1 = !{i32 7, !"PIC Level", i32 2}
!2 = !{i32 7, !"PIE Level", i32 2}
!3 = !{i32 7, !"uwtable", i32 1}
!4 = !{!"clang version 13.0.0"}
!5 = distinct !{!5, !6}
!6 = !{!"llvm.loop.mustprogress"}
!7 = distinct !{!7, !6}
!8 = !{!9, !9, i64 0}
!9 = !{!"int", !10, i64 0}
!10 = !{!"omnipotent char", !11, i64 0}
!11 = !{!"Simple C/C++ TBAA"}
!12 = distinct !{!12, !6}
